c__builtin__
set
p0
((lp1
Vginkgo
p2
aVunflavored
p3
aVmackerel
p4
aVyellow
p5
aVsichuan
p6
aVnegi
p7
aVclotted
p8
aVasian
p9
aVpheasant
p10
aVchowchow
p11
aVcanes
p12
aVhyssop
p13
aVsegments
p14
aVpancetta
p15
aVmanis
p16
aVdeli
p17
aVrise
p18
aVgremolata
p19
aVjack
p20
aVsoftened
p21
aVperrins
p22
aVcaramels
p23
aVbaking
p24
aVbroiler
p25
aVwholemeal
p26
aVfruitcake
p27
aVchambord
p28
aVsolid
p29
aVwoods
p30
aVmoulard
p31
aVcholesterol
p32
aVpoppy
p33
aVuncooked
p34
aVporterhouse
p35
aVorzo
p36
aVjamaica
p37
aVspeck
p38
aVdulong
p39
aVravva
p40
aValmond
p41
aVbacon
p42
aVjapanese
p43
aVmillet
p44
aVbrill
p45
aVsoppressata
p46
aVchee
p47
aVbucatini
p48
aVcactus
p49
aVblue
p50
aVsesame
p51
aVporcini
p52
aVtipo
p53
aVcooking
p54
aVfingers
p55
aVsalsify
p56
aVgalangal
p57
aValbacore
p58
aVzesty
p59
aVcroutons
p60
aVtopside
p61
aVhero
p62
aVdevein
p63
aVkefalotyri
p64
aVromano
p65
aVjasmine
p66
aVramps
p67
aVbroccolini
p68
aVmarnier
p69
aVpate
p70
aVjamon
p71
aVtextured
p72
aVactive
p73
aVjohnsonville
p74
aVmozzarella
p75
aVdry
p76
aVqua
p77
aVleaves
p78
aVstevia
p79
aVdri
p80
aVmezzetta
p81
aVchopmeat
p82
aVsmoke
p83
aVbertolli
p84
aVaka
p85
aVsriracha
p86
aVgolden
p87
aVcanola
p88
aVslices
p89
aVstraw
p90
aVsliced
p91
aVdungeness
p92
aVpepperocini
p93
aVsparkling
p94
aVsoybean
p95
aVshoyu
p96
aVestancia
p97
aVploy
p98
aVblueberri
p99
aVtenders
p100
aVfoster
p101
aVgaram
p102
aVchervil
p103
aVcalf
p104
aVgrassfed
p105
aVholy
p106
aVsauvignon
p107
aVoscar
p108
aVti
p109
aVpadano
p110
aVmelba
p111
aVglass
p112
aVwarm
p113
aVpecan
p114
aVorganic
p115
aVbutterflied
p116
aVlangoustines
p117
aVflora
p118
aVsweeten
p119
aVblade
p120
aVmi
p121
aValexia
p122
aVmahlab
p123
aVms
p124
aVelbow
p125
aVoleo
p126
aVcrackers
p127
aVroot
p128
aVolek
p129
aVshirataki
p130
aVvodka
p131
aVpsyllium
p132
aVjujubes
p133
aVindia
p134
aVhoney
p135
aVfoods
p136
aVveggies
p137
aVcotija
p138
aVpinto
p139
aVcrystallized
p140
aVhog
p141
aVsuet
p142
aVchanterelle
p143
aVnuts
p144
aVfondant
p145
aVscallopini
p146
aVconfit
p147
aVmachine
p148
aVhot
p149
aVpiecrust
p150
aVaminos
p151
aVfudge
p152
aVkewpie
p153
aVapplewood
p154
aVpizza
p155
aVparsnips
p156
aVlan
p157
aVpanetini
p158
aVkippers
p159
aVnutmegs
p160
aVlump
p161
aVsalsa
p162
aVlap
p163
aVkampyo
p164
aVcavolo
p165
aVchilled
p166
aVjaggery
p167
aVpaccheri
p168
aVcroissant
p169
aVgreek
p170
aVgreen
p171
aVoysters
p172
aVwing
p173
aVwine
p174
aVbanger
p175
aVmaraschino
p176
aVtallow
p177
aVmuffin
p178
aVorang
p179
aVroquefort
p180
aVchartreuse
p181
aVlondon
p182
aVcrumbs
p183
aVcaster
p184
aVyellowfin
p185
aVsaigon
p186
aVchihuahua
p187
aVplantains
p188
aVavocado
p189
aVimo
p190
aVbouquet
p191
aVdurum
p192
aVfig
p193
aVknudsen
p194
aVsavory
p195
aVhidden
p196
aVfregola
p197
aVfil
p198
aVbelly
p199
aVcoffee
p200
aVrunny
p201
aVbream
p202
aVglazed
p203
aVsilver
p204
aVbread
p205
aVcrock
p206
aVthyme
p207
aVpotatoes
p208
aVgingerroot
p209
aVrosemari
p210
aVchuck
p211
aVfilling
p212
aVroast
p213
aVpareve
p214
aVeuropean
p215
aVrosemary
p216
aVmeal
p217
aVbone
p218
aVhanger
p219
aVallspice
p220
aVjonshonville
p221
aVprawn
p222
aVadobo
p223
aVskins
p224
aVhanh
p225
aVturnip
p226
aVnavy
p227
aVextract
p228
aVwhip
p229
aVjell
p230
aVvelvet
p231
aVmenthe
p232
aVamaranth
p233
aVmoisture
p234
aVstolichnaya
p235
aVnama
p236
aVcassava
p237
aVcreole
p238
aVsmithfield
p239
aVgrease
p240
aVslivered
p241
aVcarcass
p242
aVfava
p243
aVfree
p244
aVgrapes
p245
aVmullet
p246
aVtabasco
p247
aVmuscovy
p248
aVkorma
p249
aVraisin
p250
aVsprig
p251
aVsoda
p252
aVboquerones
p253
aVxuxu
p254
aVchopped
p255
aVtilapia
p256
aVornamental
p257
aVgrade
p258
aVpots
p259
aVhoop
p260
aVveggie
p261
aVlambrusco
p262
aVlettuce
p263
aVtzatziki
p264
aVdelicious
p265
aVtamarind
p266
aVtyson
p267
aVspinach
p268
aVguinness
p269
aVconfectioners
p270
aVtop
p271
aVbonito
p272
aVzinfandel
p273
aVton
p274
aVblossoms
p275
aVhaas
p276
aVlegs
p277
aVbitter
p278
aVdogs
p279
aVglucose
p280
aVkiwi
p281
aVcornichons
p282
aVblackening
p283
aVwieners
p284
aVcanela
p285
aVluncheon
p286
aVcornflour
p287
aVlavender
p288
aVpanch
p289
aVribeye
p290
aVtoor
p291
aVcereal
p292
aVhazelnut
p293
aVpraline
p294
aVenokitake
p295
aVprego
p296
aVtree
p297
aVmochiko
p298
aVnakano
p299
aVskimmed
p300
aViron
p301
aVevaporated
p302
aVperilla
p303
aVidli
p304
aVbalsamico
p305
aVmini
p306
aVcumberland
p307
aVboston
p308
aVskinless
p309
aVginger
p310
aVraw
p311
aVseed
p312
aVras
p313
aVseltzer
p314
aVcarnitas
p315
aVmint
p316
aVgrapeseed
p317
aVherbed
p318
aVlambic
p319
aVsnow
p320
aVpandanus
p321
aVbengal
p322
aVherbes
p323
aVhatch
p324
aVhollandaise
p325
aVconsomme
p326
aVgravy
p327
aVspreadable
p328
aVnonpareils
p329
aVgrenadine
p330
aVmashed
p331
aVvictoria
p332
aVmarin
p333
aVpassover
p334
aVregular
p335
aVshallots
p336
aVmerluza
p337
aVpeppercorn
p338
aVkhoa
p339
aVwatercress
p340
aVtradit
p341
aVboysenberries
p342
aVditalini
p343
aVdog
p344
aVjalapenos
p345
aVpoints
p346
aVpineapple
p347
aVte
p348
aVscotch
p349
aVshiromiso
p350
aVkomatsuna
p351
aVlittleneck
p352
aVcurrants
p353
aVbeaten
p354
aVarmagnac
p355
aVsago
p356
aVbraising
p357
aVtequila
p358
aVsage
p359
aVlardons
p360
aVfennel
p361
aVmadeira
p362
aVearth
p363
aVpernod
p364
aVtoast
p365
aVmedallions
p366
aVshellfish
p367
aVchong
p368
aVtagliarini
p369
aVjeera
p370
aVsugar
p371
aVcelery
p372
aVcashews
p373
aVbliss
p374
aVprogresso
p375
aVpolenta
p376
aVtropic
p377
aVchipotle
p378
aVrice
p379
aVmixture
p380
aVdi
p381
aVde
p382
aVpepitas
p383
aVpocket
p384
aVwatermelon
p385
aVfrying
p386
aVdu
p387
aVdr
p388
aVchutney
p389
aVholland
p390
aVearl
p391
aVbar
p392
aVgreens
p393
aVblanched
p394
aVdipping
p395
aVlinguisa
p396
aVbay
p397
aVwhitefish
p398
aVbag
p399
aVgrilled
p400
aVsteak
p401
aVflanken
p402
aVscrubbed
p403
aVears
p404
aVheirloom
p405
aVclarified
p406
aVliquor
p407
aVlemonade
p408
aVsturgeon
p409
aVpinot
p410
aVfull
p411
aVnopalitos
p412
aVterrine
p413
aVnoodles
p414
aVdaiya
p415
aVyoplait
p416
aVbrazil
p417
aVrings
p418
aVshaved
p419
aVartificial
p420
aVpancakes
p421
aVfinger
p422
aVherb
p423
aVyogurt
p424
aVside
p425
aVclaws
p426
aVcajun
p427
aVtubetti
p428
aVancho
p429
aVmcintosh
p430
aVrolled
p431
aVmentaiko
p432
aVvitamin
p433
aVnonfat
p434
aVhoneysuckle
p435
aVflowering
p436
aVbosc
p437
aVkangkong
p438
aVeggnog
p439
aVtaleggio
p440
aVpumpernickel
p441
aVconch
p442
aVcountry
p443
aVfrangelico
p444
aVjelly
p445
aVhummus
p446
aVcob
p447
aVcod
p448
aVhimalayan
p449
aVpita
p450
aVuni
p451
aVjello
p452
aVbran
p453
aVcon
p454
aVpepperoncini
p455
aVnilla
p456
aVraita
p457
aVmarmite
p458
aVgrigio
p459
aVtrumpet
p460
aVgnocchetti
p461
aVbeetroot
p462
aVfra
p463
aVmizuna
p464
aVbeef
p465
aVsauterne
p466
aVshiitake
p467
aVdusting
p468
aVparsley
p469
aVbasmati
p470
aVmex
p471
aVsubmarine
p472
aVbeer
p473
aVcherries
p474
aVbeet
p475
aVgyoza
p476
aVglace
p477
aVbasil
p478
aVfry
p479
aVparslei
p480
aVfocaccia
p481
aVsnappers
p482
aVrotelle
p483
aVsprite
p484
aVmushroom
p485
aVchua
p486
aVpicante
p487
aVchile
p488
aVchili
p489
aVneem
p490
aVcracker
p491
aVdictine
p492
aVlesser
p493
aVcalcium
p494
aVhijiki
p495
aVmelted
p496
aVcampanelle
p497
aVmora
p498
aVcracked
p499
aVbalance
p500
aVmesquite
p501
aVtangzhong
p502
aVpitas
p503
aVcane
p504
aVmexico
p505
aVdumplings
p506
aVquinces
p507
aVbroth
p508
aVsushi
p509
aVbrewed
p510
aVic
p511
aVmatzos
p512
aVhong
p513
aVportobello
p514
aVcamellia
p515
aVkasu
p516
aVbottled
p517
aVsplit
p518
aVcarnation
p519
aVvegetable
p520
aVstickers
p521
aVtoasted
p522
aVbells
p523
aVwheel
p524
aVmoose
p525
aVboiled
p526
aVpapaya
p527
aVjuniper
p528
aVtops
p529
aVhand
p530
aVpassata
p531
aVgarlic
p532
aVkim
p533
aVtuna
p534
aVbutter
p535
aVcondiments
p536
aVunseasoned
p537
aVkaffir
p538
aVocean
p539
aVudon
p540
aVburgers
p541
aVrome
p542
aVfideos
p543
aVroma
p544
aVhearts
p545
aVunsulphured
p546
aVsmoked
p547
aVkale
p548
aVpoussins
p549
aVwheatberries
p550
aVcampbell
p551
aVgaeta
p552
aVwafers
p553
aVchipotl
p554
aVmicrogreens
p555
aVpiquin
p556
aVjose
p557
aVham
p558
aVsunflower
p559
aVcherry
p560
aVroyal
p561
aVmanzanilla
p562
aVcollard
p563
aVcognac
p564
aVkelp
p565
aVcranberries
p566
aVgalanga
p567
aVpoolish
p568
aVenchilada
p569
aVmousse
p570
aVcortland
p571
aVcarambola
p572
aVlowsodium
p573
aVgarni
p574
aVchives
p575
aVpreserv
p576
aVbushi
p577
aVcaps
p578
aVhalloumi
p579
aVampalaya
p580
aVumeboshi
p581
aVarak
p582
aVmargherita
p583
aVopo
p584
aVshoulder
p585
aVpangasius
p586
aVshucked
p587
aVflavoring
p588
aVmirin
p589
aVlipton
p590
aVbermuda
p591
aVsoursop
p592
aVhominy
p593
aVtenderloins
p594
aVmeringue
p595
aVsundried
p596
aVunagi
p597
aVtomatillo
p598
aVmeats
p599
aVportuguese
p600
aVdean
p601
aVjimmies
p602
aVhavarti
p603
aVacai
p604
aVsponge
p605
aVcavatelli
p606
aVasafoetida
p607
aVshapes
p608
aVokra
p609
aVbottom
p610
aVpurple
p611
aVear
p612
aVice
p613
aVume
p614
aVgrapefruit
p615
aVjujube
p616
aVasafetida
p617
aVtartar
p618
aVpeel
p619
aVasti
p620
aVcorn
p621
aVpla
p622
aVborage
p623
aVminced
p624
aVmeyer
p625
aVduxelles
p626
aVchilean
p627
aVoreo
p628
aVchitterlings
p629
aVribs
p630
aVturbinado
p631
aVfatfre
p632
aVdinner
p633
aVbreader
p634
aVculantro
p635
aVcoars
p636
aVislands
p637
aVcurry
p638
aVhocks
p639
aVflatbread
p640
aVpineapples
p641
aVunsalted
p642
aVmochi
p643
aVsoi
p644
aVahi
p645
aVrockfish
p646
aVsofrito
p647
aVloin
p648
aVfinely
p649
aVsoy
p650
aVshoots
p651
aVcrunch
p652
aVerythritol
p653
aVrounds
p654
aVtips
p655
aVpilsner
p656
aVamchur
p657
aVvirgin
p658
aVgroundnut
p659
aVwax
p660
aVgin
p661
aVavocados
p662
aVhead
p663
aVmedium
p664
aVfarina
p665
aVpinenuts
p666
aVspike
p667
aVtruv
p668
aVmarinara
p669
aVverde
p670
aVuncle
p671
aVbengali
p672
aVbeech
p673
aVvietnamese
p674
aVtrue
p675
aVpanettone
p676
aVwensleydale
p677
aVsprigs
p678
aVtempeh
p679
aVpanela
p680
aVtatsoi
p681
aVmanioc
p682
aVpaprika
p683
aVcrystal
p684
aVatta
p685
aVescargot
p686
aVstarchy
p687
aVmesclun
p688
aVrotisserie
p689
aVshin
p690
aVsticks
p691
aVclassic
p692
aVcassis
p693
aVpetit
p694
aVsticky
p695
aVgenoise
p696
aVdiamond
p697
aVfashioned
p698
aVsprouts
p699
aVcacao
p700
aVsaltines
p701
aVni
p702
aVreblochon
p703
aVdrum
p704
aVpale
p705
aVtip
p706
aVvenison
p707
aVoloroso
p708
aVtie
p709
aVwhey
p710
aVroll
p711
aVtamale
p712
aVtruffles
p713
aVklondike
p714
aVcornhusks
p715
aVgarland
p716
aVmanischewitz
p717
aVcampari
p718
aVdiet
p719
aVammonium
p720
aVmarcona
p721
aVphoran
p722
aVrapeseed
p723
aVgraviera
p724
aVdulce
p725
aVcaraway
p726
aVpotato
p727
aVnavel
p728
aVkasseri
p729
aVseitan
p730
aVhaloumi
p731
aVsamphire
p732
aVfusilli
p733
aVroe
p734
aVsnip
p735
aVmild
p736
aVskate
p737
aVskim
p738
aVstrozzapreti
p739
aVleche
p740
aVlaksa
p741
aVros
p742
aVmilk
p743
aVmitsuba
p744
aVvarnish
p745
aVflan
p746
aVgrape
p747
aVmembrillo
p748
aVflounder
p749
aVcalorie
p750
aVmuscadine
p751
aVkha
p752
aVginseng
p753
aVsucanat
p754
aVcouscous
p755
aVsouthwest
p756
aVbrown
p757
aVdemerara
p758
aVstring
p759
aVjerk
p760
aVyeast
p761
aVgrilling
p762
aVthawed
p763
aVvegan
p764
aVcaciocavallo
p765
aVvadouvan
p766
aVfarro
p767
aVmooli
p768
aVcook
p769
aVbhindi
p770
aVminute
p771
aVmargarita
p772
aVtortillas
p773
aVnectar
p774
aVteas
p775
aVkamut
p776
aVpecorino
p777
aVgum
p778
aVmuscat
p779
aVspecials
p780
aVharicot
p781
aVbiscotti
p782
aVquick
p783
aVguy
p784
aVtrotters
p785
aVdip
p786
aVround
p787
aVpork
p788
aVheinz
p789
aVbock
p790
aVseasoning
p791
aVshortcrust
p792
aVsteaks
p793
aVcurrant
p794
aVdried
p795
aVguanciale
p796
aVtonkatsu
p797
aVanasazi
p798
aVchicken
p799
aVgnocchi
p800
aVrainbow
p801
aVpozole
p802
aVjambalaya
p803
aVfillet
p804
aVmasoor
p805
aVsundae
p806
aVgingersnap
p807
aVmussels
p808
aVpeeled
p809
aVfrench
p810
aVwater
p811
aVdende
p812
aVbisquick
p813
aVmuesli
p814
aVfrosting
p815
aVboy
p816
aVcrumbles
p817
aVcanadian
p818
aVpearls
p819
aVbaobab
p820
aVdukkah
p821
aVbow
p822
aVbok
p823
aVcrumbled
p824
aVcinnamon
p825
aVvinaigrett
p826
aVbob
p827
aVmarrons
p828
aVmontreal
p829
aVrotel
p830
aVchateaubriand
p831
aVmccormick
p832
aVshelled
p833
aVextra
p834
aVsoybeans
p835
aVradish
p836
aVheeng
p837
aVparma
p838
aVbloody
p839
aVpeapods
p840
aVpuffed
p841
aVblacan
p842
aVcreami
p843
aVsaki
p844
aVsaltine
p845
aVmentsuyu
p846
aVsake
p847
aVanejo
p848
aVshuck
p849
aVvineyard
p850
aVcreamy
p851
aVmsg
p852
aVenriched
p853
aVyoghurt
p854
aVosetra
p855
aVlicor
p856
aVpenn
p857
aVclub
p858
aVpancit
p859
aVchocolate
p860
aVteleme
p861
aVolive
p862
aVbeluga
p863
aVspearmint
p864
aVbellpepper
p865
aVmarzano
p866
aVedible
p867
aVtokyo
p868
aVprepar
p869
aVtostitos
p870
aVsoup
p871
aVcai
p872
aVsour
p873
aVstellette
p874
aVbranston
p875
aVgerman
p876
aVpurpos
p877
aVpickle
p878
aVplum
p879
aVheart
p880
aVjambon
p881
aVmayonaise
p882
aVfrogs
p883
aVchip
p884
aVchik
p885
aVmatzo
p886
aVlacinato
p887
aVcornflakes
p888
aVchia
p889
aVborlotti
p890
aVpink
p891
aVharissa
p892
aVsavoy
p893
aVcollards
p894
aVwinter
p895
aVknoflook
p896
aVpina
p897
aVpeppadews
p898
aVpine
p899
aVflank
p900
aVpure
p901
aVkochu
p902
aVfirmly
p903
aVflakes
p904
aVredcurrant
p905
aVflavored
p906
aVloaves
p907
aVsnaps
p908
aVmung
p909
aVcocktail
p910
aVsouthern
p911
aVkumquats
p912
aVgelatin
p913
aVmae
p914
aVpastina
p915
aVnondairy
p916
aVdate
p917
aVatar
p918
aVcuring
p919
aVtuaca
p920
aVnatural
p921
aVneck
p922
aVliquid
p923
aVxanthan
p924
aVdrumsticks
p925
aVfronds
p926
aVst
p927
aVbenne
p928
aVmango
p929
aVchallenge
p930
aVtahini
p931
aVgranary
p932
aVshishito
p933
aVcomfort
p934
aVpointed
p935
aVkong
p936
aVchickpea
p937
aVducklings
p938
aVcuts
p939
aVmarshmallows
p940
aVprosecco
p941
aVhoi
p942
aVcola
p943
aVsazon
p944
aVcurly
p945
aVdisco
p946
aVdillweed
p947
aVtorn
p948
aVcurls
p949
aVbuns
p950
aVyams
p951
aVcreations
p952
aVartisan
p953
aVfarmer
p954
aVtexas
p955
aVstewing
p956
aVtonic
p957
aVraki
p958
aVsweetened
p959
aVprocess
p960
aVtails
p961
aVprunes
p962
aVrefrigerated
p963
aVhalf
p964
aVfern
p965
aVketchup
p966
aVwagon
p967
aVhickory
p968
aVgemelli
p969
aVstreaky
p970
aVgoat
p971
aVpeasant
p972
aVrock
p973
aVsato
p974
aVolie
p975
aVturtle
p976
aVel
p977
aVyuzukosho
p978
aVmacaroni
p979
aVgoose
p980
aVbigoli
p981
aVpersian
p982
aVwinesap
p983
aVamaretto
p984
aVamaretti
p985
aVprecooked
p986
aVrolls
p987
aVlinguini
p988
aVbragg
p989
aVrooster
p990
aVdutch
p991
aVmonkfish
p992
aVlinguine
p993
aVprocessed
p994
aVcloves
p995
aVclover
p996
aVromana
p997
aVbicarbonate
p998
aVcarp
p999
aVchiles
p1000
aVwalnuts
p1001
aVaioli
p1002
aVcalifornia
p1003
aVargo
p1004
aVcara
p1005
aVwaxy
p1006
aVkamaboko
p1007
aVfettucine
p1008
aVschnapps
p1009
aVyum
p1010
aVpepperoni
p1011
aVunbaked
p1012
aVcheese
p1013
aVtoulouse
p1014
aVdarjeeling
p1015
aVpillsbury
p1016
aVnutritional
p1017
aVcheesi
p1018
aVrins
p1019
aVtamari
p1020
aVmignon
p1021
aVfast
p1022
aVspanish
p1023
aVrind
p1024
aVgeorge
p1025
aVsize
p1026
aVsheep
p1027
aVsheet
p1028
aVnigella
p1029
aVchayotes
p1030
aVwildflower
p1031
aVstuffed
p1032
aVmasala
p1033
aVwhite
p1034
aVrouille
p1035
aVbits
p1036
aVlingcod
p1037
aVwilliams
p1038
aVgochujang
p1039
aVthaw
p1040
aVbreakstone
p1041
aVpearled
p1042
aVseason
p1043
aVvermicelli
p1044
aVpompano
p1045
aVlegumes
p1046
aVepazote
p1047
aVeyed
p1048
aVbutt
p1049
aVpierogi
p1050
aVthai
p1051
aVflowers
p1052
aVogura
p1053
aVwide
p1054
aValoe
p1055
aViceberg
p1056
aVoats
p1057
aVbreadstick
p1058
aVbrowning
p1059
aVspareribs
p1060
aVgobo
p1061
aVrioja
p1062
aVapples
p1063
aVfruits
p1064
aVcoconut
p1065
aVsan
p1066
aVangel
p1067
aVslaw
p1068
aVpro
p1069
aVreduction
p1070
aVdash
p1071
aVpastry
p1072
aVbreakfast
p1073
aVarrabbiata
p1074
aVslab
p1075
aVcornmeal
p1076
aVcanton
p1077
aVriso
p1078
aVusukuchi
p1079
aVcrimini
p1080
aVmayer
p1081
aVpadron
p1082
aVdips
p1083
aVtopping
p1084
aVskinned
p1085
aVpain
p1086
aVcups
p1087
aVpickling
p1088
aVboiling
p1089
aVhoneydew
p1090
aVsheets
p1091
aVamerica
p1092
aVcuban
p1093
aVcutlets
p1094
aVseafood
p1095
aVarhar
p1096
aVmrs
p1097
aVliverwurst
p1098
aVikura
p1099
aVminicub
p1100
aVradicchio
p1101
aVsalt
p1102
aVperch
p1103
aVlotus
p1104
aVpoire
p1105
aVrecipe
p1106
aVmince
p1107
aVcorned
p1108
aVpeaches
p1109
aValum
p1110
aVcalamari
p1111
aVground
p1112
aVgourd
p1113
aVbreadcrumbs
p1114
aVunsweeten
p1115
aVactiv
p1116
aVsloe
p1117
aVwood
p1118
aVblack
p1119
aVhelix
p1120
aVlavash
p1121
aVdaal
p1122
aVplums
p1123
aVpumpkin
p1124
aVsargento
p1125
aVpices
p1126
aVhungarian
p1127
aVromanesco
p1128
aVgruyere
p1129
aVchillies
p1130
aVmonde
p1131
aVfromage
p1132
aVfatback
p1133
aVbitters
p1134
aVlentilles
p1135
aVgem
p1136
aVgel
p1137
aVprime
p1138
aVniblets
p1139
aVpiri
p1140
aVcumin
p1141
aVbison
p1142
aVturbot
p1143
aVzatarain
p1144
aVtortilla
p1145
aVmasago
p1146
aVkernel
p1147
aVpicnic
p1148
aVoven
p1149
aVsucralose
p1150
aVredfish
p1151
aVtsuyu
p1152
aVgrissini
p1153
aVmoong
p1154
aVwhiskey
p1155
aVcrawfish
p1156
aVglaze
p1157
aVmalted
p1158
aVbrie
p1159
aVcalvados
p1160
aVmandarin
p1161
aVamba
p1162
aVwhipped
p1163
aVedamame
p1164
aVloofah
p1165
aVcantaloupe
p1166
aVhabas
p1167
aVconcentrate
p1168
aVspare
p1169
aVshahi
p1170
aVbroil
p1171
aVdates
p1172
aVcornflake
p1173
aVsoaking
p1174
aVchorizo
p1175
aVwheels
p1176
aVvre
p1177
aVcolor
p1178
aVpot
p1179
aVglutinous
p1180
aVpop
p1181
aVtropical
p1182
aVblackened
p1183
aVpoi
p1184
aVboar
p1185
aVpod
p1186
aVbrats
p1187
aVturkey
p1188
aVolives
p1189
aVcamembert
p1190
aVartichokes
p1191
aVshortening
p1192
aVturkei
p1193
aVjerky
p1194
aVworcestershire
p1195
aVcrawford
p1196
aVravioli
p1197
aVsuperfine
p1198
aVchai
p1199
aVthousand
p1200
aVsablefish
p1201
aVsquash
p1202
aVtiger
p1203
aVarrowroot
p1204
aVcoulis
p1205
aVstems
p1206
aVmaggi
p1207
aVquatre
p1208
aVcrumb
p1209
aVcandlenuts
p1210
aVkokum
p1211
aVcurd
p1212
aVcoca
p1213
aVsqueezed
p1214
aVsorghum
p1215
aVparboiled
p1216
aVchat
p1217
aVparmigiano
p1218
aVparmigiana
p1219
aVtwists
p1220
aVverjus
p1221
aVfurikake
p1222
aVboned
p1223
aVmuffins
p1224
aVmizkan
p1225
aVprotein
p1226
aVcasings
p1227
aVhens
p1228
aVcassia
p1229
aVcandied
p1230
aVmedjool
p1231
aVpat
p1232
aVtartlet
p1233
aValphabet
p1234
aVpepe
p1235
aVmacarons
p1236
aVmole
p1237
aVblends
p1238
aVbows
p1239
aVpad
p1240
aVcatfish
p1241
aVdistilled
p1242
aVlite
p1243
aVpak
p1244
aVpam
p1245
aVpan
p1246
aVpao
p1247
aVwrappers
p1248
aVoil
p1249
aVbaguette
p1250
aVarctic
p1251
aVweed
p1252
aVdelicata
p1253
aVfruit
p1254
aVabalone
p1255
aVmani
p1256
aVtaro
p1257
aVtapatio
p1258
aVremoulade
p1259
aVflaked
p1260
aVburrito
p1261
aVnonstick
p1262
aVpummelo
p1263
aVkirsch
p1264
aVranch
p1265
aVtapenade
p1266
aVszechuan
p1267
aVveal
p1268
aVshortbread
p1269
aViodized
p1270
aValfredo
p1271
aVgrappa
p1272
aVfigs
p1273
aValfalfa
p1274
aVsummer
p1275
aVsteamed
p1276
aVfume
p1277
aVposole
p1278
aVcockles
p1279
aVsteamer
p1280
aVch
p1281
aVpickapeppa
p1282
aVtreviso
p1283
aVtouch
p1284
aVpolish
p1285
aVflavor
p1286
aVhamachi
p1287
aVbarbecued
p1288
aVcilantro
p1289
aVrose
p1290
aVjarred
p1291
aVcayenne
p1292
aVrosa
p1293
aVbanh
p1294
aVnectarines
p1295
aVbudweiser
p1296
aVgrating
p1297
aVdrippings
p1298
aVreal
p1299
aVanchovy
p1300
aVcrusty
p1301
aVendive
p1302
aVkirby
p1303
aVsplenda
p1304
aVvirginia
p1305
aVcrusts
p1306
aVdark
p1307
aVworld
p1308
aVfriselle
p1309
aVlady
p1310
aVfryer
p1311
aVmantou
p1312
aVmeat
p1313
aVclam
p1314
aVburdock
p1315
aVcrostini
p1316
aVfajita
p1317
aVmiracle
p1318
aVleek
p1319
aVthighs
p1320
aValmondmilk
p1321
aVreduced
p1322
aVteff
p1323
aVbreadfruit
p1324
aVnaan
p1325
aVpickled
p1326
aVdole
p1327
aVlapsang
p1328
aVlobster
p1329
aVhurst
p1330
aVtable
p1331
aVpickles
p1332
aVgruy
p1333
aVlentils
p1334
aVslice
p1335
aVcaribbean
p1336
aVhoja
p1337
aVtube
p1338
aVtots
p1339
aVyaki
p1340
aVteardrop
p1341
aVsquirt
p1342
aVevapor
p1343
aVnuggets
p1344
aVdiced
p1345
aVdragees
p1346
aVarrow
p1347
aVzest
p1348
aVcitrus
p1349
aVstrained
p1350
aVbaileys
p1351
aVsports
p1352
aVsel
p1353
aVleftover
p1354
aVpiloncillo
p1355
aVprebaked
p1356
aVstone
p1357
aVdasheen
p1358
aVchoi
p1359
aVcornbread
p1360
aVchop
p1361
aVpistachio
p1362
aVwolf
p1363
aVoz
p1364
aVpockets
p1365
aVox
p1366
aVmixed
p1367
aVchoy
p1368
aVficelle
p1369
aVroad
p1370
aVunsalt
p1371
aVamber
p1372
aVmarshmallow
p1373
aVgari
p1374
aVwhites
p1375
aVchenpi
p1376
aVrising
p1377
aVstrip
p1378
aVjerusalem
p1379
aVpullman
p1380
aVbuds
p1381
aVyam
p1382
aVjowl
p1383
aVshells
p1384
aVhip
p1385
aVchicharron
p1386
aVanise
p1387
aVphiladelphia
p1388
aVcultured
p1389
aVsides
p1390
aVcheeks
p1391
aVlop
p1392
aVgrated
p1393
aVvalencia
p1394
aVhen
p1395
aVvalley
p1396
aVenergy
p1397
aVtobiko
p1398
aVspicy
p1399
aVpumpkinseed
p1400
aVgranules
p1401
aVvindaloo
p1402
aVfrostings
p1403
aVjus
p1404
aVradishes
p1405
aVcottage
p1406
aVwaffle
p1407
aVchilies
p1408
aVspice
p1409
aVstrawberri
p1410
aVsquabs
p1411
aVtripe
p1412
aVabbamele
p1413
aVmary
p1414
aVanchovies
p1415
aVjamaican
p1416
aVcipollini
p1417
aVragu
p1418
aVpekoe
p1419
aVgrass
p1420
aVpulp
p1421
aVsalata
p1422
aVrusset
p1423
aVtostadas
p1424
aVai
p1425
aVdeep
p1426
aVfoccacia
p1427
aVspaghettini
p1428
aVau
p1429
aVnero
p1430
aVfilo
p1431
aVcream
p1432
aVmaitake
p1433
aVrubbed
p1434
aVbreyers
p1435
aVasakusa
p1436
aVfield
p1437
aVtagliatelle
p1438
aVpaddy
p1439
aVbranzino
p1440
aVpear
p1441
aVpeas
p1442
aVcabrales
p1443
aVdashi
p1444
aVherbs
p1445
aVbrandy
p1446
aVgember
p1447
aVprovence
p1448
aVverjuice
p1449
aVibarra
p1450
aVreduc
p1451
aVbawang
p1452
aVpersimmons
p1453
aVmasa
p1454
aVgiardiniera
p1455
aVcauliflowerets
p1456
aVhusks
p1457
aVoriginal
p1458
aVsicilian
p1459
aVchinese
p1460
aVmiswa
p1461
aVale
p1462
aVmortadella
p1463
aVparmesan
p1464
aVdish
p1465
aVmascarpone
p1466
aVliquorice
p1467
aVasada
p1468
aVpreserves
p1469
aVblueberries
p1470
aVbeaters
p1471
aVruby
p1472
aVkrispies
p1473
aVdumpling
p1474
aVsashimi
p1475
aVclamato
p1476
aVtail
p1477
aVgranulated
p1478
aVdairy
p1479
aVpreserved
p1480
aVdressing
p1481
aVnori
p1482
aVcress
p1483
aVkiwifruit
p1484
aVpuffs
p1485
aVturnips
p1486
aVpremium
p1487
aVspumante
p1488
aVverbena
p1489
aVfat
p1490
aVbaton
p1491
aVvera
p1492
aVjalape
p1493
aVmanouri
p1494
aVveri
p1495
aVcasa
p1496
aVhemp
p1497
aVramen
p1498
aVro
p1499
aVchocolatecovered
p1500
aVangus
p1501
aVlarge
p1502
aVdinosaur
p1503
aVprosciutto
p1504
aVsmall
p1505
aVcookies
p1506
aVtel
p1507
aVannatto
p1508
aVtea
p1509
aVpaso
p1510
aVtricolor
p1511
aVtex
p1512
aVburger
p1513
aVbeurre
p1514
aVtradicional
p1515
aVminicubes
p1516
aVguava
p1517
aVbrien
p1518
aVsun
p1519
aVsum
p1520
aVcrust
p1521
aVburgundy
p1522
aVfleur
p1523
aVcrush
p1524
aVscallops
p1525
aVburgundi
p1526
aVcondensed
p1527
aVfarofa
p1528
aVhash
p1529
aVknockwurst
p1530
aVloose
p1531
aVcoco
p1532
aVthreads
p1533
aVcompressed
p1534
aVsardines
p1535
aVshimeji
p1536
aVstrong
p1537
aVasadero
p1538
aVhass
p1539
aVtriscuits
p1540
aVchipped
p1541
aVfrangipane
p1542
aVanjou
p1543
aVvegetarian
p1544
aVguacamol
p1545
aVcucumbers
p1546
aVlasagne
p1547
aVminiature
p1548
aVpico
p1549
aVlasagna
p1550
aVpapalo
p1551
aVjagermeister
p1552
aVbeliev
p1553
aVorecchiette
p1554
aVguacamole
p1555
aVfamily
p1556
aVvie
p1557
aVsherbet
p1558
aVvin
p1559
aVlayer
p1560
aVoigatsuo
p1561
aVchunky
p1562
aVchunks
p1563
aVherring
p1564
aVunbleached
p1565
aVeye
p1566
aVblueberry
p1567
aVpears
p1568
aVsomen
p1569
aVrustic
p1570
aVpearl
p1571
aVpollock
p1572
aVlowfat
p1573
aVcurds
p1574
aVgarnish
p1575
aVamontillado
p1576
aVchestnut
p1577
aVflat
p1578
aVmondavi
p1579
aVkabocha
p1580
aVbottle
p1581
aVflax
p1582
aVyuca
p1583
aVscallions
p1584
aVmelon
p1585
aVpectin
p1586
aVstick
p1587
aVglac
p1588
aVmellow
p1589
aVuncook
p1590
aVfiddlehead
p1591
aVgrill
p1592
aVshoepeg
p1593
aVfettuccini
p1594
aVchardonnay
p1595
aVmalt
p1596
aVdew
p1597
aVtapioca
p1598
aVkippered
p1599
aVrotini
p1600
aVtendons
p1601
aVmo
p1602
aVladys
p1603
aVshark
p1604
aVhamburger
p1605
aVsalted
p1606
aVrigate
p1607
aVferns
p1608
aVbhaji
p1609
aVkefir
p1610
aVespelette
p1611
aVimitation
p1612
aVsharp
p1613
aVdress
p1614
aVicing
p1615
aVmacadamia
p1616
aVdrained
p1617
aVparatha
p1618
aVchops
p1619
aVrye
p1620
aVbologna
p1621
aVfreshly
p1622
aVbrowns
p1623
aVgebhardt
p1624
aVstir
p1625
aVcannelloni
p1626
aVidaho
p1627
aVsandwich
p1628
aVfu
p1629
aVpetite
p1630
aVdaisy
p1631
aVbrownie
p1632
aVfungus
p1633
aVpetits
p1634
aVtuong
p1635
aVblood
p1636
aVconchiglie
p1637
aVcomino
p1638
aVseca
p1639
aVpatis
p1640
aVshort
p1641
aVdoritos
p1642
aVdeviled
p1643
aVcaul
p1644
aVdrummettes
p1645
aVtentacles
p1646
aVhalibut
p1647
aVemerils
p1648
aVegg
p1649
aVturmeric
p1650
aVshichimi
p1651
aVmexican
p1652
aVajinomoto
p1653
aVbris
p1654
aVessence
p1655
aVmilkfish
p1656
aVmission
p1657
aVlimoncello
p1658
aVscrod
p1659
aVpaper
p1660
aVdough
p1661
aVpane
p1662
aVrefried
p1663
aVroots
p1664
aVstyle
p1665
aVundrain
p1666
aVsodium
p1667
aVbuttercup
p1668
aVcremini
p1669
aVouzo
p1670
aVparts
p1671
aVboneless
p1672
aVpeanuts
p1673
aVpesto
p1674
aVcool
p1675
aVsauce
p1676
aVfines
p1677
aVrecip
p1678
aVgood
p1679
aVanisette
p1680
aVfood
p1681
aVcannoli
p1682
aVrosewater
p1683
aVlinguica
p1684
aVwasabi
p1685
aVorgeat
p1686
aVmahi
p1687
aVmaifun
p1688
aVyu
p1689
aVstewed
p1690
aVhakusai
p1691
aVnugget
p1692
aVfully
p1693
aVbihon
p1694
aVloosely
p1695
aVcointreau
p1696
aVrobiola
p1697
aVsoya
p1698
aVmaltose
p1699
aVedam
p1700
aVflaxseed
p1701
aVgenoa
p1702
aVbiscuits
p1703
aVheavy
p1704
aVtuttorosso
p1705
aVclams
p1706
aVnashi
p1707
aVpiecrusts
p1708
aVhouse
p1709
aVfish
p1710
aVhard
p1711
aVshungiku
p1712
aVpiccolini
p1713
aVbetty
p1714
aVeggroll
p1715
aVkahlua
p1716
aVthick
p1717
aVlemongrass
p1718
aVkatsuo
p1719
aVflower
p1720
aValcohol
p1721
aVrobert
p1722
aVpigeon
p1723
aVtempura
p1724
aVmojo
p1725
aVacting
p1726
aVgranola
p1727
aVyellowtail
p1728
aVquince
p1729
aVkalonji
p1730
aVfiber
p1731
aVbass
p1732
aVcornstarch
p1733
aVbase
p1734
aVcookie
p1735
aVpuy
p1736
aVacorn
p1737
aVbasa
p1738
aVhots
p1739
aVsaltpeter
p1740
aVpur
p1741
aVpoppadoms
p1742
aVthread
p1743
aVchachere
p1744
aVcalamansi
p1745
aVrack
p1746
aVgourmet
p1747
aVamerican
p1748
aVkung
p1749
aVprovolone
p1750
aVcorkscrew
p1751
aVcaponata
p1752
aVmiso
p1753
aVlicorice
p1754
aVsooji
p1755
aVfeet
p1756
aVcodfish
p1757
aVulek
p1758
aVmaple
p1759
aVblanc
p1760
aVrazor
p1761
aVheads
p1762
aVblossom
p1763
aVbrisket
p1764
aVnonhydrogenated
p1765
aVscallion
p1766
aVnian
p1767
aVbolillo
p1768
aVfuyu
p1769
aVmethi
p1770
aVvidalia
p1771
aVpitted
p1772
aVmaster
p1773
aVsyrup
p1774
aVbanana
p1775
aVstore
p1776
aVsemisweet
p1777
aVkitchen
p1778
aVeverglades
p1779
aVpart
p1780
aVfats
p1781
aVking
p1782
aVtortellini
p1783
aVdouble
p1784
aVgrey
p1785
aVgrained
p1786
aVhaddock
p1787
aVgochugaru
p1788
aVarborio
p1789
aVskippy
p1790
aVcrescent
p1791
aVswerve
p1792
aVlivers
p1793
aVcoleslaw
p1794
aVpattypan
p1795
aVfillets
p1796
aVwakame
p1797
aVjuice
p1798
aVgala
p1799
aVtandoori
p1800
aVaged
p1801
aVkaro
p1802
aVmountain
p1803
aVfermented
p1804
aVblanco
p1805
aVnests
p1806
aVmian
p1807
aVport
p1808
aVcaesar
p1809
aVsubstitute
p1810
aVsherry
p1811
aVzucchini
p1812
aVseedless
p1813
aVfresca
p1814
aVadded
p1815
aVpuree
p1816
aVeggs
p1817
aVenglish
p1818
aVsalmon
p1819
aVbrioche
p1820
aVmace
p1821
aVcuminseed
p1822
aVhothouse
p1823
aVseasons
p1824
aVorchid
p1825
aVchard
p1826
aVoyster
p1827
aVvegeta
p1828
aVmineral
p1829
aVmoonshine
p1830
aVclear
p1831
aVnibs
p1832
aVtraditional
p1833
aVpekin
p1834
aVfilets
p1835
aVblend
p1836
aVchanna
p1837
aVgold
p1838
aVsangria
p1839
aVcucuzza
p1840
aVmoroccan
p1841
aVcarne
p1842
aVcallaloo
p1843
aVtarama
p1844
aVfino
p1845
aVfine
p1846
aVwraps
p1847
aVdijonnaise
p1848
aVmirlitons
p1849
aVnorthern
p1850
aVwolfberries
p1851
aVsockeye
p1852
aVprimavera
p1853
aVfritos
p1854
aVcolby
p1855
aVindian
p1856
aVherbsaint
p1857
aVlongan
p1858
aVmein
p1859
aVchapatti
p1860
aVluke
p1861
aVpois
p1862
aVbatter
p1863
aVbreast
p1864
aVcuervo
p1865
aVneufch
p1866
aVfluff
p1867
aVcavenders
p1868
aVcrabmeat
p1869
aVwondra
p1870
aVhachiya
p1871
aVcaramel
p1872
aVmuscovado
p1873
aVchuka
p1874
aVbars
p1875
aVvine
p1876
aVbarolo
p1877
aVlillet
p1878
aVsea
p1879
aVtender
p1880
aVbark
p1881
aVgouda
p1882
aVhibiscus
p1883
aVempanada
p1884
aVbeni
p1885
aVredhot
p1886
aVritz
p1887
aVtamales
p1888
aVguinea
p1889
aVnutella
p1890
aVhalves
p1891
aVcreme
p1892
aVblackcurrant
p1893
aVwok
p1894
aVcrema
p1895
aVchampagne
p1896
aVverts
p1897
aVcarbonated
p1898
aVbulgur
p1899
aVsole
p1900
aVspray
p1901
aVchilegarlic
p1902
aVcubes
p1903
aVyuzu
p1904
aVsecrets
p1905
aVcolman
p1906
aVcubed
p1907
aVeggplant
p1908
aVdrambuie
p1909
aVshanks
p1910
aVlimeade
p1911
aVgoya
p1912
aVcakes
p1913
aVbell
p1914
aVsimple
p1915
aVbags
p1916
aVpimentos
p1917
aVpimenton
p1918
aVcrispy
p1919
aVconimex
p1920
aVyukon
p1921
aVkernels
p1922
aVmulato
p1923
aVdevil
p1924
aVangostura
p1925
aVhuitlacoche
p1926
aVvelveeta
p1927
aVhellmann
p1928
aVbuttermilk
p1929
aVsecret
p1930
aVcoarse
p1931
aVnapa
p1932
aVpeppers
p1933
aVhing
p1934
aVpanko
p1935
aVpompeian
p1936
aVfirm
p1937
aVcantal
p1938
aVtawny
p1939
aVassorted
p1940
aVfire
p1941
aVpaddles
p1942
aVghee
p1943
aVasiago
p1944
aVsobrasada
p1945
aVgao
p1946
aVpeppercorns
p1947
aVgai
p1948
aVporter
p1949
aVcummin
p1950
aVsavoiardi
p1951
aVmozarella
p1952
aVsoba
p1953
aVmerguez
p1954
aVkecap
p1955
aVfrozen
p1956
aVcapsicum
p1957
aVstraight
p1958
aVcalabaza
p1959
aVfontina
p1960
aVpace
p1961
aVpressed
p1962
aVmostarda
p1963
aVpack
p1964
aVpound
p1965
aVcentury
p1966
aVkroger
p1967
aVsardi
p1968
aVtriple
p1969
aVready
p1970
aVquail
p1971
aVmuenster
p1972
aVrib
p1973
aVpappadams
p1974
aVnielsen
p1975
aVcuisine
p1976
aVchestnuts
p1977
aVpoundcake
p1978
aVcascabel
p1979
aVleafy
p1980
aVbarilla
p1981
aVsunchokes
p1982
aVchicory
p1983
aValeppo
p1984
aVgrana
p1985
aVgrand
p1986
aVmaida
p1987
aVspears
p1988
aVshao
p1989
aVshiro
p1990
aVandouille
p1991
aVstrips
p1992
aVyucca
p1993
aVsnail
p1994
aVsyd
p1995
aVpomegranate
p1996
aVwingettes
p1997
aVaonori
p1998
aVziti
p1999
aVnappa
p2000
aVriesling
p2001
aVcucumber
p2002
aVpurpose
p2003
aVpimento
p2004
aVbartlett
p2005
aVwholesome
p2006
aVbrussels
p2007
aVcanned
p2008
aVlower
p2009
aVnoodle
p2010
aVsumac
p2011
aVcheek
p2012
aVchickens
p2013
aVgrind
p2014
aVchees
p2015
aVhomestyl
p2016
aVswiss
p2017
aVwedges
p2018
aVcrayfish
p2019
aVpollen
p2020
aVlobsters
p2021
aVskin
p2022
aVcheddar
p2023
aVquarters
p2024
aVroasted
p2025
aVmargarine
p2026
aVpoha
p2027
aVcava
p2028
aVbased
p2029
aVcut
p2030
aVchaat
p2031
aVtreacle
p2032
aVcrumpet
p2033
aVdhal
p2034
aVmakers
p2035
aVhorseradish
p2036
aVbuttercream
p2037
aVgroats
p2038
aVsandwiches
p2039
aVsilken
p2040
aVcornish
p2041
aVnettle
p2042
aVrigatoni
p2043
aVqueso
p2044
aVbig
p2045
aVbayonne
p2046
aVvital
p2047
aVnuoc
p2048
aVgame
p2049
aVsemolina
p2050
aVwings
p2051
aVjackfruit
p2052
aVsuccess
p2053
aVsemi
p2054
aVframboise
p2055
aVgrit
p2056
aVcollect
p2057
aVspiny
p2058
aVscape
p2059
aVbamboo
p2060
aVhoneycomb
p2061
aVgodiva
p2062
aVkerrygold
p2063
aVflowerets
p2064
aVcones
p2065
aVspring
p2066
aVsorbet
p2067
aVback
p2068
aVyolk
p2069
aVmarmalade
p2070
aVpalm
p2071
aVfalafel
p2072
aVwesson
p2073
aVbutterscotch
p2074
aVsauces
p2075
aVschmaltz
p2076
aVcapon
p2077
aVblackstrap
p2078
aVsugarcane
p2079
aVlard
p2080
aVbraeburn
p2081
aVpea
p2082
aVblackberry
p2083
aVporridge
p2084
aVeating
p2085
aVrum
p2086
aVrub
p2087
aVfresco
p2088
aVraspberri
p2089
aVgoma
p2090
aVlakes
p2091
aVstem
p2092
aVstew
p2093
aVsanta
p2094
aVsanto
p2095
aVraspberry
p2096
aVrutabaga
p2097
aVknoblauch
p2098
aVbeefsteak
p2099
aVclassico
p2100
aVoatmeal
p2101
aVpappardelle
p2102
aVrange
p2103
aVagave
p2104
aVbeans
p2105
aVgherkins
p2106
aVceci
p2107
aVcanning
p2108
aVblock
p2109
aVjimmy
p2110
aVmoss
p2111
aVtofu
p2112
aVcalamata
p2113
aVcrouton
p2114
aVdrain
p2115
aVabura
p2116
aVlonganiza
p2117
aVkielbasa
p2118
aVcho
p2119
aVleeks
p2120
aVmadagascar
p2121
aVao
p2122
aVspam
p2123
aVjameson
p2124
aVlong
p2125
aVfilipino
p2126
aVrobusto
p2127
aVhomemade
p2128
aVfryers
p2129
aVchapati
p2130
aVsections
p2131
aVconvert
p2132
aVszechwan
p2133
aVhawaiian
p2134
aVfilet
p2135
aVraisins
p2136
aVcrabapples
p2137
aVbuttery
p2138
aVpaneer
p2139
aVtvp
p2140
aVoxtails
p2141
aVatlantic
p2142
aVpapad
p2143
aVrussian
p2144
aVraising
p2145
aVguajillo
p2146
aVbiga
p2147
aVoriginals
p2148
aVadzuki
p2149
aVapricot
p2150
aVcavatappi
p2151
aVfries
p2152
aVpeppermint
p2153
aVnestle
p2154
aVmature
p2155
aVjumbo
p2156
aVfried
p2157
aVdill
p2158
aVknorr
p2159
aVkidnei
p2160
aVcham
p2161
aVchar
p2162
aVsingle
p2163
aVtubettini
p2164
aVcrepes
p2165
aVcura
p2166
aVneedles
p2167
aVgraham
p2168
aVkidney
p2169
aVpandan
p2170
aVsatsuma
p2171
aVlemon
p2172
aVhuckleberries
p2173
aVpeach
p2174
aVgrouper
p2175
aVsaffron
p2176
aVnam
p2177
aVsweetbreads
p2178
aVkombu
p2179
aVmayonnaise
p2180
aVtart
p2181
aVachiote
p2182
aVscrub
p2183
aVmustard
p2184
aVbreasts
p2185
aVprepared
p2186
aVquinoa
p2187
aVkaiser
p2188
aVfructose
p2189
aVfisher
p2190
aVswede
p2191
aVcuttlefish
p2192
aVbianco
p2193
aVwonton
p2194
aVelderflower
p2195
aVland
p2196
aVwafer
p2197
aVage
p2198
aVdaikon
p2199
aVheath
p2200
aVboudin
p2201
aVcooked
p2202
aVbeverage
p2203
aVfresh
p2204
aVberries
p2205
aVbuffalo
p2206
aVraclette
p2207
aVmonterey
p2208
aVyardlong
p2209
aVeggland
p2210
aVpotsticker
p2211
aVprik
p2212
aVmayonnais
p2213
aVsoften
p2214
aVbacardi
p2215
aVfarms
p2216
aVmorel
p2217
aVbarbecue
p2218
aVshiraz
p2219
aVclementines
p2220
aVturkish
p2221
aVpeanut
p2222
aVshanghai
p2223
aVyoung
p2224
aVgranular
p2225
aVculinary
p2226
aVgermain
p2227
aVripened
p2228
aVwasabe
p2229
aVpassion
p2230
aVquorn
p2231
aVgarden
p2232
aVsausag
p2233
aVdessert
p2234
aVkewra
p2235
aVassam
p2236
aVladyfingers
p2237
aVdecorating
p2238
aVmutton
p2239
aVtri
p2240
aVasparagus
p2241
aVbutton
p2242
aVpiquillo
p2243
aVescalopes
p2244
aVburrata
p2245
aVunhulled
p2246
aVquahog
p2247
aVsnails
p2248
aVshiso
p2249
aVgoji
p2250
aVsultana
p2251
aVza
p2252
aVfilled
p2253
aVacini
p2254
aVfrisee
p2255
aVnigari
p2256
aVmarinade
p2257
aVwheat
p2258
aVacid
p2259
aVspaghetti
p2260
aVcrosswise
p2261
aVgiblet
p2262
aVsausage
p2263
aVsauerkraut
p2264
aVtarragon
p2265
aVfrankfurters
p2266
aVespresso
p2267
aVchalla
p2268
aVapplesauce
p2269
aVchickpeas
p2270
aVbird
p2271
aVnacho
p2272
aVlea
p2273
aVleg
p2274
aVkalamata
p2275
aVdelallo
p2276
aVgiant
p2277
aVraspberries
p2278
aVpancake
p2279
aVsoymilk
p2280
aVcardoons
p2281
aVvinegar
p2282
aVgreat
p2283
aVcasing
p2284
aVmorsels
p2285
aVspiced
p2286
aVkarashi
p2287
aVnopales
p2288
aVtortelloni
p2289
aVbuckwheat
p2290
aVpopcorn
p2291
aVchang
p2292
aVspices
p2293
aVchana
p2294
aVclementine
p2295
aVmaui
p2296
aVapple
p2297
aVbittersweet
p2298
aVliqueur
p2299
aVhoagi
p2300
aVmasur
p2301
aVduck
p2302
aVlima
p2303
aVcloud
p2304
aVlime
p2305
aVstanding
p2306
aVfed
p2307
aVche
p2308
aViced
p2309
aVwhipping
p2310
aVdoubl
p2311
aVseamless
p2312
aVgerm
p2313
aVamarena
p2314
aVcrab
p2315
aVknuckle
p2316
aVthickeners
p2317
aVbelgian
p2318
aVpopped
p2319
aVrich
p2320
aVpike
p2321
aVtangerine
p2322
aVcalimyrna
p2323
aVurad
p2324
aVrabbit
p2325
aVkasha
p2326
aVbaby
p2327
aVhillshire
p2328
aVharvest
p2329
aVgherkin
p2330
aVstarter
p2331
aVwhisky
p2332
aVballs
p2333
aVsalad
p2334
aVgomashio
p2335
aVchianti
p2336
aVmostaccioli
p2337
aVcachaca
p2338
aVthin
p2339
aVisland
p2340
aVcrocker
p2341
aVsaba
p2342
aVwedge
p2343
aVbens
p2344
aVtap
p2345
aVlinks
p2346
aVsansho
p2347
aVslim
p2348
aVsanding
p2349
aVpieces
p2350
aVhigh
p2351
aVpeperoncini
p2352
aVcarrot
p2353
aVflake
p2354
aVpeperoncino
p2355
aVbones
p2356
aVshrimp
p2357
aVonions
p2358
aVrape
p2359
aVlamb
p2360
aVsiu
p2361
aVrhubarb
p2362
aVskirt
p2363
aVdandelion
p2364
aVpetrale
p2365
aVmerlot
p2366
aVforest
p2367
aVfeta
p2368
aVemmenthal
p2369
aVpasilla
p2370
aVgallo
p2371
aVstock
p2372
aVkohlrabi
p2373
aVcardamom
p2374
aVchow
p2375
aVchive
p2376
aVtaco
p2377
aVcabbage
p2378
aVgravlax
p2379
aVtomato
p2380
aVketjap
p2381
aVlight
p2382
aVbing
p2383
aVprawns
p2384
aVserrano
p2385
aVmark
p2386
aVcolada
p2387
aVsambuca
p2388
aVlevain
p2389
aVeggplants
p2390
aVhake
p2391
aVsafflower
p2392
aVricard
p2393
aVthigh
p2394
aVoctopuses
p2395
aVfresno
p2396
aVkingfish
p2397
aVmorcilla
p2398
aVartichoke
p2399
aVbrittle
p2400
aVhock
p2401
aVbutternut
p2402
aVmassey
p2403
aVsuperior
p2404
aVlb
p2405
aVbesan
p2406
aVla
p2407
aVlo
p2408
aVgarbanzos
p2409
aVkasuri
p2410
aVrelish
p2411
aVcannellini
p2412
aVrabe
p2413
aVorange
p2414
aVcovered
p2415
aVspot
p2416
aVlychees
p2417
aVbiryani
p2418
aVdickel
p2419
aVgreater
p2420
aVpecans
p2421
aVblackberries
p2422
aVdal
p2423
aVflour
p2424
aVfiesta
p2425
aVoranges
p2426
aVchourico
p2427
aVspelt
p2428
aVstout
p2429
aVrajma
p2430
aVday
p2431
aVperciatelli
p2432
aVcoriander
p2433
aVmushrooms
p2434
aVroughy
p2435
aVpanang
p2436
aVrisotto
p2437
aVkatakuriko
p2438
aVcider
p2439
aVarbol
p2440
aVtrimmed
p2441
aVshaoxing
p2442
aVrennet
p2443
aVkonnyaku
p2444
aVflorets
p2445
aVdijon
p2446
aVfingerling
p2447
aVchunk
p2448
aVhoisin
p2449
aVchuno
p2450
aVmincemeat
p2451
aVpistachios
p2452
aVescarole
p2453
aVlentil
p2454
aVartichok
p2455
aVazuki
p2456
aVsauc
p2457
aVfedelini
p2458
aVcrookneck
p2459
aVhanout
p2460
aVherdez
p2461
aVfarm
p2462
aVceylon
p2463
aVoriental
p2464
aVbarley
p2465
aVgrits
p2466
aVromain
p2467
aVlettuces
p2468
aVred
p2469
aVpaella
p2470
aVcardamon
p2471
aVpoppyseeds
p2472
aVfrank
p2473
aVcheong
p2474
aVackee
p2475
aVanglaise
p2476
aVtumeric
p2477
aVsalami
p2478
aVyork
p2479
aVsichuanese
p2480
aVkikkoman
p2481
aVchilli
p2482
aVcured
p2483
aVcompote
p2484
aVjiffy
p2485
aVhierba
p2486
aVshred
p2487
aVpudding
p2488
aVbai
p2489
aVvegetables
p2490
aVbordelaise
p2491
aVevans
p2492
aVreposado
p2493
aVmuscavado
p2494
aVfleshed
p2495
aVsuckling
p2496
aVsack
p2497
aVbonnet
p2498
aVfranks
p2499
aVimperial
p2500
aVmarrow
p2501
aVpreshred
p2502
aVmam
p2503
aVnatto
p2504
aVaccent
p2505
aVtostada
p2506
aVracks
p2507
aVponzu
p2508
aVaquavit
p2509
aVnut
p2510
aVboil
p2511
aVlow
p2512
aVkashmiri
p2513
aVshell
p2514
aVmanchego
p2515
aVdoubanjiang
p2516
aVmarble
p2517
aVnegro
p2518
aVdangmyun
p2519
aVslider
p2520
aVaccompaniment
p2521
aVtuscan
p2522
aVcapellini
p2523
aVlox
p2524
aVchiltep
p2525
aVsteel
p2526
aVben
p2527
aVprune
p2528
aVazteca
p2529
aVmazola
p2530
aVganache
p2531
aVmexicorn
p2532
aVmultigrain
p2533
aVbee
p2534
aVanaheim
p2535
aVsec
p2536
aVpansies
p2537
aVharusame
p2538
aVsweeteners
p2539
aVviolets
p2540
aVfowl
p2541
aVtupelo
p2542
aVcarrots
p2543
aVseville
p2544
aVbraggs
p2545
aVtom
p2546
aVsorrel
p2547
aVgravenstein
p2548
aVclove
p2549
aVquickcooking
p2550
aVsprinkles
p2551
aVcatsup
p2552
aVroux
p2553
aVmin
p2554
aVstonefire
p2555
aVmie
p2556
aVbagel
p2557
aVmix
p2558
aVamberjack
p2559
aVkorean
p2560
aVmartha
p2561
aVlily
p2562
aVbrand
p2563
aVcrisco
p2564
aVpete
p2565
aVmuscadet
p2566
aVpretzels
p2567
aVpastis
p2568
aVgooseberries
p2569
aVcherrystone
p2570
aVpetals
p2571
aVdigestive
p2572
aVpeppered
p2573
aVromaine
p2574
aVmedal
p2575
aVpatties
p2576
aVbeets
p2577
aValaskan
p2578
aVburro
p2579
aVbrew
p2580
aVgarbonzo
p2581
aVhatcho
p2582
aVpepperidge
p2583
aVcatalina
p2584
aVdoughs
p2585
aVsatsumas
p2586
aVmatsutake
p2587
aVbratwurst
p2588
aVcalabash
p2589
aVpinhead
p2590
aVsheepshead
p2591
aVbrine
p2592
aVseaweed
p2593
aVyolks
p2594
aVchevre
p2595
aVreggiano
p2596
aVcreamed
p2597
aVcoloring
p2598
aVnoir
p2599
aVkeema
p2600
aVcapocollo
p2601
aVhops
p2602
aVeau
p2603
aVngo
p2604
aVkabuli
p2605
aVjam
p2606
aVcreamer
p2607
aVriblets
p2608
aVbourbon
p2609
aVsangiovese
p2610
aVtangelos
p2611
aVmelissa
p2612
aVhsing
p2613
aVcube
p2614
aVstarch
p2615
aVbeau
p2616
aVbear
p2617
aVbean
p2618
aVmolasses
p2619
aVstriped
p2620
aVjicama
p2621
aVchips
p2622
aVcrabs
p2623
aVgray
p2624
aVbarberries
p2625
aVgras
p2626
aVnutmeg
p2627
aVgram
p2628
aVgran
p2629
aVnoodl
p2630
aVtaiwanese
p2631
aVfreeze
p2632
aVpowder
p2633
aVunsweetened
p2634
aVdragon
p2635
aVmanicotti
p2636
aVkimchi
p2637
aVcold
p2638
aVpacked
p2639
aVguanabana
p2640
aVmexicana
p2641
aVpistou
p2642
aVcole
p2643
aVmadras
p2644
aVstrawberry
p2645
aVmeatballs
p2646
aVcastelvetrano
p2647
aVmaca
p2648
aVbouillon
p2649
aVtorpedo
p2650
aVkidneys
p2651
aVbought
p2652
aVjif
p2653
aVbibb
p2654
aVfarfalline
p2655
aVcauliflower
p2656
aVtoffee
p2657
aVbeverages
p2658
aVmassaman
p2659
aVtomate
p2660
aVhabanero
p2661
aVcake
p2662
aVpiment
p2663
aVlecithin
p2664
aVkey
p2665
aVshoga
p2666
aVinstant
p2667
aVviande
p2668
aVequal
p2669
aVkosher
p2670
aVtater
p2671
aVgrain
p2672
aVcomice
p2673
aVpuff
p2674
aVajwain
p2675
aVbagels
p2676
aVchilcostle
p2677
aVmarjoram
p2678
aVarugula
p2679
aVmahimahi
p2680
aVconger
p2681
aVoregano
p2682
aVtarde
p2683
aVcr
p2684
aVwalnut
p2685
aVrashers
p2686
aVgumbo
p2687
aVgenmai
p2688
aVfarmhouse
p2689
aVbalsamic
p2690
aVtikka
p2691
aVaspic
p2692
aVkahl
p2693
aVtaste
p2694
aVpoured
p2695
aVseasoned
p2696
aVrump
p2697
aVwoksaus
p2698
aVkirschwasser
p2699
aVlouisiana
p2700
aVbbq
p2701
aVangled
p2702
aVkochujang
p2703
aVdespelette
p2704
aVbulk
p2705
aVcotto
p2706
aVsausages
p2707
aVroasting
p2708
aVportabello
p2709
aVricotta
p2710
aVbulb
p2711
aVbocconcini
p2712
aVstilton
p2713
aVmulti
p2714
aVbeaujolais
p2715
aVplain
p2716
aVvanilla
p2717
aVflageolet
p2718
aVchipotles
p2719
aVagar
p2720
aVbeansprouts
p2721
aVsucrolose
p2722
aVounc
p2723
aVcox
p2724
aVwild
p2725
aVmadeleine
p2726
aVcapicola
p2727
aVhoagie
p2728
aVstuffing
p2729
aVrefined
p2730
aVfile
p2731
aVripe
p2732
aVsquid
p2733
aVneapolitan
p2734
aVdemi
p2735
aVcappuccino
p2736
aVmaldon
p2737
aVhogue
p2738
aVlambs
p2739
aVmyzithra
p2740
aVhubbard
p2741
aVabsinthe
p2742
aVcross
p2743
aVserving
p2744
aVapricots
p2745
aVcalabrese
p2746
aVcastellane
p2747
aVinch
p2748
aVphyllo
p2749
aVbechamel
p2750
aVtomatoes
p2751
aVpoblano
p2752
aVfenugreek
p2753
aVbalm
p2754
aVpho
p2755
aVbresaola
p2756
aVswordfish
p2757
aVdrink
p2758
aVcolouring
p2759
aVascorbic
p2760
aVcarnaroli
p2761
aVcroissants
p2762
aVkonbu
p2763
aVbroccoli
p2764
aVrusk
p2765
aVpoultry
p2766
aVceltic
p2767
aVcenter
p2768
aVkalamansi
p2769
aVproscuitto
p2770
aVjelli
p2771
aVmixers
p2772
aVvinaigrette
p2773
aVchimichurri
p2774
aVkinchay
p2775
aVfatfree
p2776
aVbananas
p2777
aVrocket
p2778
aVsouchong
p2779
aVyakisoba
p2780
aVpicholine
p2781
aVloaf
p2782
aVlaurel
p2783
aVrapid
p2784
aVmezcal
p2785
aVharicots
p2786
aVbelacan
p2787
aVsmith
p2788
aVsweetener
p2789
aVgoreng
p2790
aVsweet
p2791
aVteriyaki
p2792
aVpersimmon
p2793
aVsmart
p2794
aVcholula
p2795
aVdolce
p2796
aVmarzipan
p2797
aVcrushed
p2798
aVfuji
p2799
aVswanson
p2800
aVbottoms
p2801
aVkefalotiri
p2802
aVknox
p2803
aVpies
p2804
aVgalliano
p2805
aVcrisp
p2806
aVonion
p2807
aVratatouille
p2808
aVcandy
p2809
aVroti
p2810
aVcutlet
p2811
aVarepa
p2812
aVsoft
p2813
aVsourdough
p2814
aVitalian
p2815
aVlager
p2816
aVlumpia
p2817
aVcrisps
p2818
aVchioggia
p2819
aVoliv
p2820
aVawase
p2821
aVfettuccine
p2822
aVhair
p2823
aVtony
p2824
aValmonds
p2825
aVhome
p2826
aVmeatloaf
p2827
aVtenderizer
p2828
aVleaf
p2829
aVjalapeno
p2830
aVbroad
p2831
aVpisco
p2832
aVlean
p2833
aVbarramundi
p2834
aVleav
p2835
aVtruffle
p2836
aVblackpepper
p2837
aVtrout
p2838
aVmilkfat
p2839
aVpepper
p2840
aVnido
p2841
aVsnapper
p2842
aVjarlsberg
p2843
aVpomelo
p2844
aVthinli
p2845
aVshavings
p2846
aVpasta
p2847
aVpaste
p2848
aVkappa
p2849
aVbiscuit
p2850
aVpumpkinseeds
p2851
aVgizzards
p2852
aVseeds
p2853
aVtoppings
p2854
aVcranberry
p2855
aVtongue
p2856
aVfri
p2857
aVrendered
p2858
aVcitron
p2859
aVelmlea
p2860
aVdhaniya
p2861
aVtenderloin
p2862
aVcocoa
p2863
aVscones
p2864
aVpromise
p2865
aVzatarains
p2866
aVmatcha
p2867
aVlettuc
p2868
aVciabatta
p2869
aVtoasts
p2870
aVcustard
p2871
aVcajeta
p2872
aVfoie
p2873
aVbrownies
p2874
aVval
p2875
aVchrysanthemum
p2876
aVdeveined
p2877
aVmarsala
p2878
aVdaniels
p2879
aVcaviar
p2880
aVspiral
p2881
aVshortcakes
p2882
aVspread
p2883
aVvay
p2884
aVpowdered
p2885
aVdrumstick
p2886
aVoise
p2887
aVglobe
p2888
aVparmagiano
p2889
aVcooki
p2890
aVmenta
p2891
aVsugars
p2892
aVgluten
p2893
aVshank
p2894
aVcitric
p2895
aVcoke
p2896
aVneutral
p2897
aVstrawberries
p2898
aVbun
p2899
aVgranny
p2900
aVgrate
p2901
aVkraft
p2902
aVtomatillos
p2903
aVharina
p2904
aVeel
p2905
aVmade
p2906
aVveget
p2907
aVsmooth
p2908
aVchinkiang
p2909
aVconverted
p2910
aVcarpaccio
p2911
aVpippin
p2912
aVchiffonade
p2913
aVgarbanzo
p2914
aVpiece
p2915
aVpignolis
p2916
aVcordial
p2917
aVirish
p2918
aVsirloin
p2919
aVdomino
p2920
aVkisses
p2921
aVpie
p2922
aVpig
p2923
aVdoenzang
p2924
aVpenne
p2925
aVsambal
p2926
aVundiluted
p2927
aVpit
p2928
aVkirschenliqueur
p2929
aVfishcake
p2930
aVmorton
p2931
aVhazelnuts
p2932
aVcashew
p2933
aVarame
p2934
aVoat
p2935
aVmagret
p2936
aVvarieti
p2937
aVvermouth
p2938
aVgranita
p2939
aVbranca
p2940
aVboursin
p2941
aVstar
p2942
aVshredded
p2943
aVbreadcrumb
p2944
aVgorgonzola
p2945
aVgreekstyl
p2946
aVtasso
p2947
aVunsmoked
p2948
aVcapers
p2949
aVtogarashi
p2950
aVcabernet
p2951
aVcaper
p2952
aVgelato
p2953
aVpods
p2954
aVcolorado
p2955
aVcasera
p2956
aVortega
p2957
aVpilaf
p2958
aVbaked
p2959
aVliver
p2960
atp2961
Rp2962
.